target datalayout = "e-m:e-p270:32:32-p271:32:32-p272:64:64-i64:64-i128:128-f80:128-n8:16:32:64-S128"
target triple = "x86_64-unknown-linux-gnu"

; Function Attrs: mustprogress uwtable
define noundef i64 @_ZN7rocksdb15WriteController18NowMicrosMonotonicEPNS_11SystemClockE(ptr noundef nonnull align 8 dereferenceable(56) %this, ptr noundef %clock) #0 align 2 {
entry:
  %this.addr = alloca ptr, align 8
  %clock.addr = alloca ptr, align 8
  store ptr %this, ptr %this.addr, align 8
  store ptr %clock, ptr %clock.addr, align 8
  %0 = load ptr, ptr %clock.addr, align 8
  %vtable = load ptr, ptr %0, align 8
  %vfn = getelementptr inbounds ptr, ptr %vtable, i64 20
  %1 = load ptr, ptr %vfn, align 8
  %call = call noundef i64 %1(ptr noundef nonnull align 8 dereferenceable(32) %0)
  %div = udiv i64 %call, 1000
  ret i64 %div
}