; Function Attrs: mustprogress uwtable
define noundef i64 @_ZN7rocksdb15WriteController18NowMicrosMonotonicEPNS_11SystemClockE(ptr nocapture noundef nonnull readnone align 8 dereferenceable(56) %this, ptr noundef %clock) local_unnamed_addr #0 align 2 {
entry:
  %vtable = load ptr, ptr %clock, align 8
  %vfn = getelementptr inbounds i8, ptr %vtable, i64 160
  %0 = load ptr, ptr %vfn, align 8
  %call = tail call noundef i64 %0(ptr noundef nonnull align 8 dereferenceable(32) %clock)
  %div = udiv i64 %call, 1000
  ret i64 %div
}